; Function Attrs: nounwind uwtable
define ptr @l_Lake_DSL_expandScriptDecl___lambda__3___boxed(ptr noundef %0, ptr noundef %1, ptr noundef %2, ptr noundef %3, ptr noundef %4, ptr noundef %5, ptr noundef %6, ptr noundef %7, ptr noundef %8, ptr noundef %9, ptr noundef %10, ptr noundef %11) local_unnamed_addr #0 {
  %13 = tail call ptr @l_Lake_DSL_expandScriptDecl___lambda__3(ptr noundef %0, ptr noundef %1, ptr noundef %2, ptr noundef %3, ptr noundef %4, ptr noundef %5, ptr noundef %6, ptr noundef %7, ptr poison, ptr noundef %9, ptr noundef %10, ptr noundef %11)
  %14 = ptrtoint ptr %8 to i64
  %15 = and i64 %14, 1
  %.not = icmp eq i64 %15, 0
  br i1 %.not, label %16, label %lean_dec.exit19

16:                                               ; preds = %12
  %17 = load i32, ptr %8, align 4, !tbaa !4
  %18 = icmp sgt i32 %17, 1
  br i1 %18, label %19, label %21, !prof !11

19:                                               ; preds = %16
  %20 = add nsw i32 %17, -1
  store i32 %20, ptr %8, align 4, !tbaa !4
  br label %lean_dec.exit19

21:                                               ; preds = %16
  %.not.i = icmp eq i32 %17, 0
  br i1 %.not.i, label %lean_dec.exit19, label %22

22:                                               ; preds = %21
  tail call void @lean_dec_ref_cold(ptr noundef nonnull %8) #5
  br label %lean_dec.exit19

lean_dec.exit19:                                  ; preds = %22, %21, %19, %12
  %23 = ptrtoint ptr %3 to i64
  %24 = and i64 %23, 1
  %.not26 = icmp eq i64 %24, 0
  br i1 %.not26, label %25, label %lean_dec.exit18

25:                                               ; preds = %lean_dec.exit19
  %26 = load i32, ptr %3, align 4, !tbaa !4
  %27 = icmp sgt i32 %26, 1
  br i1 %27, label %28, label %30, !prof !11

28:                                               ; preds = %25
  %29 = add nsw i32 %26, -1
  store i32 %29, ptr %3, align 4, !tbaa !4
  br label %lean_dec.exit18

30:                                               ; preds = %25
  %.not.i20 = icmp eq i32 %26, 0
  br i1 %.not.i20, label %lean_dec.exit18, label %31

31:                                               ; preds = %30
  tail call void @lean_dec_ref_cold(ptr noundef nonnull %3) #5
  br label %lean_dec.exit18

lean_dec.exit18:                                  ; preds = %31, %30, %28, %lean_dec.exit19
  %32 = ptrtoint ptr %1 to i64
  %33 = and i64 %32, 1
  %.not27 = icmp eq i64 %33, 0
  br i1 %.not27, label %34, label %lean_dec.exit17

34:                                               ; preds = %lean_dec.exit18
  %35 = load i32, ptr %1, align 4, !tbaa !4
  %36 = icmp sgt i32 %35, 1
  br i1 %36, label %37, label %39, !prof !11

37:                                               ; preds = %34
  %38 = add nsw i32 %35, -1
  store i32 %38, ptr %1, align 4, !tbaa !4
  br label %lean_dec.exit17

39:                                               ; preds = %34
  %.not.i22 = icmp eq i32 %35, 0
  br i1 %.not.i22, label %lean_dec.exit17, label %40

40:                                               ; preds = %39
  tail call void @lean_dec_ref_cold(ptr noundef nonnull %1) #5
  br label %lean_dec.exit17

lean_dec.exit17:                                  ; preds = %40, %39, %37, %lean_dec.exit18
  %41 = ptrtoint ptr %0 to i64
  %42 = and i64 %41, 1
  %.not28 = icmp eq i64 %42, 0
  br i1 %.not28, label %43, label %lean_dec.exit

43:                                               ; preds = %lean_dec.exit17
  %44 = load i32, ptr %0, align 4, !tbaa !4
  %45 = icmp sgt i32 %44, 1
  br i1 %45, label %46, label %48, !prof !11

46:                                               ; preds = %43
  %47 = add nsw i32 %44, -1
  store i32 %47, ptr %0, align 4, !tbaa !4
  br label %lean_dec.exit

48:                                               ; preds = %43
  %.not.i24 = icmp eq i32 %44, 0
  br i1 %.not.i24, label %lean_dec.exit, label %49

49:                                               ; preds = %48
  tail call void @lean_dec_ref_cold(ptr noundef nonnull %0) #5
  br label %lean_dec.exit

lean_dec.exit:                                    ; preds = %49, %48, %46, %lean_dec.exit17
  ret ptr %13
}